target datalayout = "e-m:e-p270:32:32-p271:32:32-p272:64:64-i64:64-i128:128-f80:128-n8:16:32:64-S128"
target triple = "x86_64-pc-linux-gnu"

%struct._object = type { %union.anon, ptr }
%union.anon = type { i64 }
%struct.PicklerObject = type { %struct._object, ptr, ptr, ptr, ptr, ptr, ptr, ptr, i64, i64, i32, i32, i32, i64, i64, i32, i32, i32, ptr, ptr }

@PyExc_OverflowError = external global ptr, align 8
@.str.30 = private unnamed_addr constant [82 x i8] c"serializing a bytes object larger than 4 GiB requires pickle protocol 4 or higher\00", align 1

; Function Attrs: nounwind uwtable
define internal void @_write_size64(ptr noundef %0, i64 noundef %1) #0 {
  %3 = alloca ptr, align 8
  %4 = alloca i64, align 8
  %5 = alloca i64, align 8
  store ptr %0, ptr %3, align 8, !tbaa !36
  store i64 %1, ptr %4, align 8, !tbaa !34
  call void @llvm.lifetime.start.p0(i64 8, ptr %5) #10
  store i64 0, ptr %5, align 8, !tbaa !34
  br label %6

6:                                                ; preds = %19, %2
  %7 = load i64, ptr %5, align 8, !tbaa !34
  %8 = icmp ult i64 %7, 8
  br i1 %8, label %9, label %22

9:                                                ; preds = %6
  %10 = load i64, ptr %4, align 8, !tbaa !34
  %11 = load i64, ptr %5, align 8, !tbaa !34
  %12 = mul i64 8, %11
  %13 = lshr i64 %10, %12
  %14 = and i64 %13, 255
  %15 = trunc i64 %14 to i8
  %16 = load ptr, ptr %3, align 8, !tbaa !36
  %17 = load i64, ptr %5, align 8, !tbaa !34
  %18 = getelementptr i8, ptr %16, i64 %17
  store i8 %15, ptr %18, align 1, !tbaa !63
  br label %19

19:                                               ; preds = %9
  %20 = load i64, ptr %5, align 8, !tbaa !34
  %21 = add i64 %20, 1
  store i64 %21, ptr %5, align 8, !tbaa !34
  br label %6, !llvm.loop !117

22:                                               ; preds = %6
  store i64 8, ptr %5, align 8, !tbaa !34
  br label %23

23:                                               ; preds = %30, %22
  %24 = load i64, ptr %5, align 8, !tbaa !34
  %25 = icmp ult i64 %24, 8
  br i1 %25, label %26, label %33

26:                                               ; preds = %23
  %27 = load ptr, ptr %3, align 8, !tbaa !36
  %28 = load i64, ptr %5, align 8, !tbaa !34
  %29 = getelementptr i8, ptr %27, i64 %28
  store i8 0, ptr %29, align 1, !tbaa !63
  br label %30

30:                                               ; preds = %26
  %31 = load i64, ptr %5, align 8, !tbaa !34
  %32 = add i64 %31, 1
  store i64 %32, ptr %5, align 8, !tbaa !34
  br label %23, !llvm.loop !118

33:                                               ; preds = %23
  call void @llvm.lifetime.end.p0(i64 8, ptr %5) #10
  ret void
}

; Function Attrs: nounwind uwtable
define internal i32 @_save_bytes_data(ptr noundef %0, ptr noundef %1, ptr noundef %2, ptr noundef %3, i64 noundef %4) #0 {
  %6 = alloca i32, align 4
  %7 = alloca ptr, align 8
  %8 = alloca ptr, align 8
  %9 = alloca ptr, align 8
  %10 = alloca ptr, align 8
  %11 = alloca i64, align 8
  %12 = alloca [9 x i8], align 1
  %13 = alloca i64, align 8
  %14 = alloca i32, align 4
  store ptr %0, ptr %7, align 8, !tbaa !8
  store ptr %1, ptr %8, align 8, !tbaa !38
  store ptr %2, ptr %9, align 8, !tbaa !3
  store ptr %3, ptr %10, align 8, !tbaa !36
  store i64 %4, ptr %11, align 8, !tbaa !34
  call void @llvm.lifetime.start.p0(i64 9, ptr %12) #10
  call void @llvm.lifetime.start.p0(i64 8, ptr %13) #10
  %15 = load i64, ptr %11, align 8, !tbaa !34
  %16 = icmp slt i64 %15, 0
  br i1 %16, label %17, label %18

17:                                               ; preds = %5
  store i32 -1, ptr %6, align 4
  store i32 1, ptr %14, align 4
  br label %82

18:                                               ; preds = %5
  %19 = load i64, ptr %11, align 8, !tbaa !34
  %20 = icmp sle i64 %19, 255
  br i1 %20, label %21, label %26

21:                                               ; preds = %18
  %22 = getelementptr [9 x i8], ptr %12, i64 0, i64 0
  store i8 67, ptr %22, align 1, !tbaa !63
  %23 = load i64, ptr %11, align 8, !tbaa !34
  %24 = trunc i64 %23 to i8
  %25 = getelementptr [9 x i8], ptr %12, i64 0, i64 1
  store i8 %24, ptr %25, align 1, !tbaa !63
  store i64 2, ptr %13, align 8, !tbaa !34
  br label %64

26:                                               ; preds = %18
  %27 = load i64, ptr %11, align 8, !tbaa !34
  %28 = icmp ule i64 %27, 4294967295
  br i1 %28, label %29, label %50

29:                                               ; preds = %26
  %30 = getelementptr [9 x i8], ptr %12, i64 0, i64 0
  store i8 66, ptr %30, align 1, !tbaa !63
  %31 = load i64, ptr %11, align 8, !tbaa !34
  %32 = and i64 %31, 255
  %33 = trunc i64 %32 to i8
  %34 = getelementptr [9 x i8], ptr %12, i64 0, i64 1
  store i8 %33, ptr %34, align 1, !tbaa !63
  %35 = load i64, ptr %11, align 8, !tbaa !34
  %36 = ashr i64 %35, 8
  %37 = and i64 %36, 255
  %38 = trunc i64 %37 to i8
  %39 = getelementptr [9 x i8], ptr %12, i64 0, i64 2
  store i8 %38, ptr %39, align 1, !tbaa !63
  %40 = load i64, ptr %11, align 8, !tbaa !34
  %41 = ashr i64 %40, 16
  %42 = and i64 %41, 255
  %43 = trunc i64 %42 to i8
  %44 = getelementptr [9 x i8], ptr %12, i64 0, i64 3
  store i8 %43, ptr %44, align 1, !tbaa !63
  %45 = load i64, ptr %11, align 8, !tbaa !34
  %46 = ashr i64 %45, 24
  %47 = and i64 %46, 255
  %48 = trunc i64 %47 to i8
  %49 = getelementptr [9 x i8], ptr %12, i64 0, i64 4
  store i8 %48, ptr %49, align 1, !tbaa !63
  store i64 5, ptr %13, align 8, !tbaa !34
  br label %63

50:                                               ; preds = %26
  %51 = load ptr, ptr %8, align 8, !tbaa !38
  %52 = getelementptr inbounds nuw %struct.PicklerObject, ptr %51, i32 0, i32 10
  %53 = load i32, ptr %52, align 8, !tbaa !53
  %54 = icmp sge i32 %53, 4
  br i1 %54, label %55, label %60

55:                                               ; preds = %50
  %56 = getelementptr [9 x i8], ptr %12, i64 0, i64 0
  store i8 -114, ptr %56, align 1, !tbaa !63
  %57 = getelementptr inbounds [9 x i8], ptr %12, i64 0, i64 0
  %58 = getelementptr i8, ptr %57, i64 1
  %59 = load i64, ptr %11, align 8, !tbaa !34
  call void @_write_size64(ptr noundef %58, i64 noundef %59)
  store i64 9, ptr %13, align 8, !tbaa !34
  br label %62

60:                                               ; preds = %50
  %61 = load ptr, ptr @PyExc_OverflowError, align 8, !tbaa !3
  call void @PyErr_SetString(ptr noundef %61, ptr noundef @.str.30)
  store i32 -1, ptr %6, align 4
  store i32 1, ptr %14, align 4
  br label %82

62:                                               ; preds = %55
  br label %63

63:                                               ; preds = %62, %29
  br label %64

64:                                               ; preds = %63, %21
  %65 = load ptr, ptr %8, align 8, !tbaa !38
  %66 = getelementptr inbounds [9 x i8], ptr %12, i64 0, i64 0
  %67 = load i64, ptr %13, align 8, !tbaa !34
  %68 = load ptr, ptr %10, align 8, !tbaa !36
  %69 = load i64, ptr %11, align 8, !tbaa !34
  %70 = load ptr, ptr %9, align 8, !tbaa !3
  %71 = call i32 @_Pickler_write_bytes(ptr noundef %65, ptr noundef %66, i64 noundef %67, ptr noundef %68, i64 noundef %69, ptr noundef %70)
  %72 = icmp slt i32 %71, 0
  br i1 %72, label %73, label %74

73:                                               ; preds = %64
  store i32 -1, ptr %6, align 4
  store i32 1, ptr %14, align 4
  br label %82

74:                                               ; preds = %64
  %75 = load ptr, ptr %7, align 8, !tbaa !8
  %76 = load ptr, ptr %8, align 8, !tbaa !38
  %77 = load ptr, ptr %9, align 8, !tbaa !3
  %78 = call i32 @memo_put(ptr noundef %75, ptr noundef %76, ptr noundef %77)
  %79 = icmp slt i32 %78, 0
  br i1 %79, label %80, label %81

80:                                               ; preds = %74
  store i32 -1, ptr %6, align 4
  store i32 1, ptr %14, align 4
  br label %82

81:                                               ; preds = %74
  store i32 0, ptr %6, align 4
  store i32 1, ptr %14, align 4
  br label %82

82:                                               ; preds = %81, %80, %73, %60, %17
  call void @llvm.lifetime.end.p0(i64 8, ptr %13) #10
  call void @llvm.lifetime.end.p0(i64 9, ptr %12) #10
  %83 = load i32, ptr %6, align 4
  ret i32 %83
}