; Function Attrs: nounwind uwtable
define internal fastcc range(i32 -1, 1) i32 @_save_bytes_data(ptr noundef readonly captures(none) %0, ptr noundef %1, ptr noundef %2, ptr noundef %3, i64 noundef %4) unnamed_addr #0 {
  %6 = alloca [9 x i8], align 1
  call void @llvm.lifetime.start.p0(i64 9, ptr nonnull %6) #13
  %7 = icmp slt i64 %4, 0
  %.sink21.sroa.gep = getelementptr inbounds nuw i8, ptr %6, i64 4
  %.sink21.sroa.gep23 = getelementptr inbounds nuw i8, ptr %6, i64 1
  br i1 %7, label %42, label %8

8:                                                ; preds = %5
  %9 = icmp samesign ult i64 %4, 256
  br i1 %9, label %10, label %11

10:                                               ; preds = %8
  store i8 67, ptr %6, align 1, !tbaa !42
  br label %_write_size64.exit.sink.split

11:                                               ; preds = %8
  %12 = icmp samesign ult i64 %4, 4294967296
  br i1 %12, label %13, label %23

13:                                               ; preds = %11
  store i8 66, ptr %6, align 1, !tbaa !42
  %14 = trunc i64 %4 to i8
  %15 = getelementptr inbounds nuw i8, ptr %6, i64 1
  store i8 %14, ptr %15, align 1, !tbaa !42
  %16 = lshr i64 %4, 8
  %17 = trunc i64 %16 to i8
  %18 = getelementptr inbounds nuw i8, ptr %6, i64 2
  store i8 %17, ptr %18, align 1, !tbaa !42
  %19 = lshr i64 %4, 16
  %20 = trunc i64 %19 to i8
  %21 = getelementptr inbounds nuw i8, ptr %6, i64 3
  store i8 %20, ptr %21, align 1, !tbaa !42
  %22 = lshr i64 %4, 24
  br label %_write_size64.exit.sink.split

23:                                               ; preds = %11
  %24 = getelementptr inbounds nuw i8, ptr %1, i64 88
  %25 = load i32, ptr %24, align 8, !tbaa !36
  %26 = icmp sgt i32 %25, 3
  br i1 %26, label %27, label %35

27:                                               ; preds = %23
  store i8 -114, ptr %6, align 1, !tbaa !42
  %28 = getelementptr inbounds nuw i8, ptr %6, i64 1
  br label %29

29:                                               ; preds = %29, %27
  %.09.i = phi i64 [ 0, %27 ], [ %34, %29 ]
  %30 = shl nuw nsw i64 %.09.i, 3
  %31 = lshr i64 %4, %30
  %32 = trunc i64 %31 to i8
  %33 = getelementptr i8, ptr %28, i64 %.09.i
  store i8 %32, ptr %33, align 1, !tbaa !42
  %34 = add nuw nsw i64 %.09.i, 1
  %exitcond.not.i = icmp eq i64 %34, 8
  br i1 %exitcond.not.i, label %_write_size64.exit, label %29, !llvm.loop !48

35:                                               ; preds = %23
  %36 = load ptr, ptr @PyExc_OverflowError, align 8, !tbaa !35
  tail call void @PyErr_SetString(ptr noundef %36, ptr noundef nonnull @.str.30) #13
  br label %42

_write_size64.exit.sink.split:                    ; preds = %10, %13
  %.sink22 = phi i64 [ %22, %13 ], [ %4, %10 ]
  %.sink21.sroa.phi = phi ptr [ %.sink21.sroa.gep, %13 ], [ %.sink21.sroa.gep23, %10 ]
  %.0.ph = phi i64 [ 5, %13 ], [ 2, %10 ]
  %37 = trunc nuw i64 %.sink22 to i8
  store i8 %37, ptr %.sink21.sroa.phi, align 1, !tbaa !42
  br label %_write_size64.exit

_write_size64.exit:                               ; preds = %29, %_write_size64.exit.sink.split
  %.0 = phi i64 [ %.0.ph, %_write_size64.exit.sink.split ], [ 9, %29 ]
  %38 = call fastcc i32 @_Pickler_write_bytes(ptr noundef %1, ptr noundef %6, i64 noundef %.0, ptr noundef %3, i64 noundef %4, ptr noundef %2)
  %39 = icmp slt i32 %38, 0
  br i1 %39, label %42, label %40

40:                                               ; preds = %_write_size64.exit
  %41 = tail call fastcc i32 @memo_put(ptr noundef %0, ptr noundef %1, ptr noundef %2)
  br label %42

42:                                               ; preds = %40, %_write_size64.exit, %5, %35
  %.018 = phi i32 [ -1, %35 ], [ -1, %5 ], [ -1, %_write_size64.exit ], [ %41, %40 ]
  call void @llvm.lifetime.end.p0(i64 9, ptr nonnull %6) #13
  ret i32 %.018
}